; Function Attrs: mustprogress nounwind uwtable
define void @_ZN3gmx24TrajectoryAnalysisModuleD2Ev(ptr noundef nonnull align 8 dereferenceable(16) initializes((0, 8)) %0) unnamed_addr #6 align 2 personality ptr @__gxx_personality_v0 {
  store ptr getelementptr inbounds nuw inrange(-16, 88) (i8, ptr @_ZTVN3gmx24TrajectoryAnalysisModuleE, i64 16), ptr %0, align 8, !tbaa !4
  %2 = getelementptr inbounds nuw i8, ptr %0, i64 8
  %3 = load ptr, ptr %2, align 8, !tbaa !25
  %.not.i = icmp eq ptr %3, null
  br i1 %.not.i, label %_ZNSt10unique_ptrIN3gmx24TrajectoryAnalysisModule4ImplESt14default_deleteIS2_EED2Ev.exit, label %4

4:                                                ; preds = %1
  tail call void @_ZNKSt14default_deleteIN3gmx24TrajectoryAnalysisModule4ImplEEclEPS2_(ptr noundef nonnull align 8 dereferenceable(8) %2, ptr noundef nonnull %3)
  br label %_ZNSt10unique_ptrIN3gmx24TrajectoryAnalysisModule4ImplESt14default_deleteIS2_EED2Ev.exit

_ZNSt10unique_ptrIN3gmx24TrajectoryAnalysisModule4ImplESt14default_deleteIS2_EED2Ev.exit: ; preds = %1, %4
  store ptr null, ptr %2, align 8, !tbaa !25
  ret void
}